target datalayout = "e-m:e-p270:32:32-p271:32:32-p272:64:64-i64:64-i128:128-f80:128-n8:16:32:64-S128"
target triple = "x86_64-pc-linux-gnu"

%struct.Gia_Man_t_ = type { ptr, ptr, i32, i32, i32, i32, ptr, ptr, i32, i32, i32, ptr, ptr, %struct.Vec_Int_t_, %struct.Vec_Int_t_, i32, i32, i32, %struct.Vec_Int_t_, ptr, ptr, ptr, i32, i32, i32, i32, ptr, ptr, ptr, ptr, ptr, i32, i32, ptr, i32, ptr, ptr, ptr, ptr, ptr, ptr, ptr, ptr, ptr, ptr, ptr, ptr, ptr, ptr, ptr, ptr, ptr, ptr, %struct.Vec_Int_t_, %struct.Vec_Int_t_, ptr, ptr, ptr, ptr, ptr, ptr, ptr, ptr, ptr, ptr, ptr, ptr, ptr, ptr, ptr, ptr, ptr, ptr, ptr, ptr, ptr, i32, float, float, ptr, ptr, i32, ptr, ptr, ptr, ptr, ptr, ptr, ptr, ptr, ptr, ptr, ptr, ptr, ptr, ptr, ptr, i64, i64, ptr, ptr, i32, i32, i32, i32, i32, i32, i32, i32, i32, i32, i32, i32, ptr, ptr, ptr, ptr, ptr, ptr, ptr, ptr, i32, i32, i32, ptr, i32, i32, ptr, ptr, ptr, ptr, ptr, ptr, i32, i32, ptr, %struct.Vec_Int_t_, %struct.Vec_Int_t_, %struct.Vec_Int_t_, ptr, ptr, ptr, i32, i32, i32, i32, ptr, ptr, ptr, ptr, ptr }
%struct.Vec_Int_t_ = type { i32, i32, ptr }
%struct.Gia_Obj_t_ = type <{ i64, i32 }>

; Function Attrs: inlinehint nounwind uwtable
define internal i32 @Vec_IntSize(ptr noundef %0) #2 {
  %2 = alloca ptr, align 8
  store ptr %0, ptr %2, align 8, !tbaa !8
  %3 = load ptr, ptr %2, align 8, !tbaa !8
  %4 = getelementptr inbounds nuw %struct.Vec_Int_t_, ptr %3, i32 0, i32 1
  %5 = load i32, ptr %4, align 4, !tbaa !34
  ret i32 %5
}

; Function Attrs: inlinehint nounwind uwtable
define internal i32 @Gia_ManPiNum(ptr noundef %0) #2 {
  %2 = alloca ptr, align 8
  store ptr %0, ptr %2, align 8, !tbaa !3
  %3 = load ptr, ptr %2, align 8, !tbaa !3
  %4 = getelementptr inbounds nuw %struct.Gia_Man_t_, ptr %3, i32 0, i32 11
  %5 = load ptr, ptr %4, align 8, !tbaa !46
  %6 = call i32 @Vec_IntSize(ptr noundef %5)
  %7 = load ptr, ptr %2, align 8, !tbaa !3
  %8 = getelementptr inbounds nuw %struct.Gia_Man_t_, ptr %7, i32 0, i32 2
  %9 = load i32, ptr %8, align 8, !tbaa !44
  %10 = sub nsw i32 %6, %9
  ret i32 %10
}

; Function Attrs: inlinehint nounwind uwtable
define internal i32 @Gia_ObjCioId(ptr noundef %0) #2 {
  %2 = alloca ptr, align 8
  store ptr %0, ptr %2, align 8, !tbaa !31
  %3 = load ptr, ptr %2, align 8, !tbaa !31
  %4 = load i64, ptr %3, align 4
  %5 = lshr i64 %4, 32
  %6 = and i64 %5, 536870911
  %7 = trunc i64 %6 to i32
  ret i32 %7
}

; Function Attrs: inlinehint nounwind uwtable
define internal i32 @Gia_ObjIsCi(ptr noundef %0) #2 {
  %2 = alloca ptr, align 8
  store ptr %0, ptr %2, align 8, !tbaa !31
  %3 = load ptr, ptr %2, align 8, !tbaa !31
  %4 = load i64, ptr %3, align 4
  %5 = lshr i64 %4, 31
  %6 = and i64 %5, 1
  %7 = trunc i64 %6 to i32
  %8 = icmp ne i32 %7, 0
  br i1 %8, label %9, label %15

9:                                                ; preds = %1
  %10 = load ptr, ptr %2, align 8, !tbaa !31
  %11 = load i64, ptr %10, align 4
  %12 = and i64 %11, 536870911
  %13 = trunc i64 %12 to i32
  %14 = icmp eq i32 %13, 536870911
  br label %15

15:                                               ; preds = %9, %1
  %16 = phi i1 [ false, %1 ], [ %14, %9 ]
  %17 = zext i1 %16 to i32
  ret i32 %17
}

; Function Attrs: inlinehint nounwind uwtable
define internal i32 @Gia_ObjIsRo(ptr noundef %0, ptr noundef %1) #2 {
  %3 = alloca ptr, align 8
  %4 = alloca ptr, align 8
  store ptr %0, ptr %3, align 8, !tbaa !3
  store ptr %1, ptr %4, align 8, !tbaa !31
  %5 = load ptr, ptr %4, align 8, !tbaa !31
  %6 = call i32 @Gia_ObjIsCi(ptr noundef %5)
  %7 = icmp ne i32 %6, 0
  br i1 %7, label %8, label %14

8:                                                ; preds = %2
  %9 = load ptr, ptr %4, align 8, !tbaa !31
  %10 = call i32 @Gia_ObjCioId(ptr noundef %9)
  %11 = load ptr, ptr %3, align 8, !tbaa !3
  %12 = call i32 @Gia_ManPiNum(ptr noundef %11)
  %13 = icmp sge i32 %10, %12
  br label %14

14:                                               ; preds = %8, %2
  %15 = phi i1 [ false, %2 ], [ %13, %8 ]
  %16 = zext i1 %15 to i32
  ret i32 %16
}

; Function Attrs: inlinehint nounwind uwtable
define internal i32 @Gia_ObjIsPi(ptr noundef %0, ptr noundef %1) #2 {
  %3 = alloca ptr, align 8
  %4 = alloca ptr, align 8
  store ptr %0, ptr %3, align 8, !tbaa !3
  store ptr %1, ptr %4, align 8, !tbaa !31
  %5 = load ptr, ptr %4, align 8, !tbaa !31
  %6 = call i32 @Gia_ObjIsCi(ptr noundef %5)
  %7 = icmp ne i32 %6, 0
  br i1 %7, label %8, label %14

8:                                                ; preds = %2
  %9 = load ptr, ptr %4, align 8, !tbaa !31
  %10 = call i32 @Gia_ObjCioId(ptr noundef %9)
  %11 = load ptr, ptr %3, align 8, !tbaa !3
  %12 = call i32 @Gia_ManPiNum(ptr noundef %11)
  %13 = icmp slt i32 %10, %12
  br label %14

14:                                               ; preds = %8, %2
  %15 = phi i1 [ false, %2 ], [ %13, %8 ]
  %16 = zext i1 %15 to i32
  ret i32 %16
}

; Function Attrs: inlinehint nounwind uwtable
define internal i32 @Gia_ObjFaninC1(ptr noundef %0) #2 {
  %2 = alloca ptr, align 8
  store ptr %0, ptr %2, align 8, !tbaa !31
  %3 = load ptr, ptr %2, align 8, !tbaa !31
  %4 = load i64, ptr %3, align 4
  %5 = lshr i64 %4, 61
  %6 = and i64 %5, 1
  %7 = trunc i64 %6 to i32
  ret i32 %7
}

; Function Attrs: inlinehint nounwind uwtable
define internal i32 @Gia_ObjFaninC0(ptr noundef %0) #2 {
  %2 = alloca ptr, align 8
  store ptr %0, ptr %2, align 8, !tbaa !31
  %3 = load ptr, ptr %2, align 8, !tbaa !31
  %4 = load i64, ptr %3, align 4
  %5 = lshr i64 %4, 29
  %6 = and i64 %5, 1
  %7 = trunc i64 %6 to i32
  ret i32 %7
}

; Function Attrs: inlinehint nounwind uwtable
define internal ptr @Gia_ManConst0(ptr noundef %0) #2 {
  %2 = alloca ptr, align 8
  store ptr %0, ptr %2, align 8, !tbaa !3
  %3 = load ptr, ptr %2, align 8, !tbaa !3
  %4 = getelementptr inbounds nuw %struct.Gia_Man_t_, ptr %3, i32 0, i32 6
  %5 = load ptr, ptr %4, align 8, !tbaa !37
  ret ptr %5
}

; Function Attrs: inlinehint nounwind uwtable
define internal i32 @Abc_MaxInt(i32 noundef %0, i32 noundef %1) #2 {
  %3 = alloca i32, align 4
  %4 = alloca i32, align 4
  store i32 %0, ptr %3, align 4, !tbaa !10
  store i32 %1, ptr %4, align 4, !tbaa !10
  %5 = load i32, ptr %3, align 4, !tbaa !10
  %6 = load i32, ptr %4, align 4, !tbaa !10
  %7 = icmp sgt i32 %5, %6
  br i1 %7, label %8, label %10

8:                                                ; preds = %2
  %9 = load i32, ptr %3, align 4, !tbaa !10
  br label %12

10:                                               ; preds = %2
  %11 = load i32, ptr %4, align 4, !tbaa !10
  br label %12

12:                                               ; preds = %10, %8
  %13 = phi i32 [ %9, %8 ], [ %11, %10 ]
  ret i32 %13
}

; Function Attrs: inlinehint nounwind uwtable
define internal ptr @Gia_ObjFanin1(ptr noundef %0) #2 {
  %2 = alloca ptr, align 8
  store ptr %0, ptr %2, align 8, !tbaa !31
  %3 = load ptr, ptr %2, align 8, !tbaa !31
  %4 = load ptr, ptr %2, align 8, !tbaa !31
  %5 = load i64, ptr %4, align 4
  %6 = lshr i64 %5, 32
  %7 = and i64 %6, 536870911
  %8 = trunc i64 %7 to i32
  %9 = sext i32 %8 to i64
  %10 = sub i64 0, %9
  %11 = getelementptr inbounds %struct.Gia_Obj_t_, ptr %3, i64 %10
  ret ptr %11
}

; Function Attrs: inlinehint nounwind uwtable
define internal ptr @Gia_ObjFanin0(ptr noundef %0) #2 {
  %2 = alloca ptr, align 8
  store ptr %0, ptr %2, align 8, !tbaa !31
  %3 = load ptr, ptr %2, align 8, !tbaa !31
  %4 = load ptr, ptr %2, align 8, !tbaa !31
  %5 = load i64, ptr %4, align 4
  %6 = and i64 %5, 536870911
  %7 = trunc i64 %6 to i32
  %8 = sext i32 %7 to i64
  %9 = sub i64 0, %8
  %10 = getelementptr inbounds %struct.Gia_Obj_t_, ptr %3, i64 %9
  ret ptr %10
}

; Function Attrs: inlinehint nounwind uwtable
define internal i32 @Gia_ObjIsAnd(ptr noundef %0) #2 {
  %2 = alloca ptr, align 8
  store ptr %0, ptr %2, align 8, !tbaa !31
  %3 = load ptr, ptr %2, align 8, !tbaa !31
  %4 = load i64, ptr %3, align 4
  %5 = lshr i64 %4, 31
  %6 = and i64 %5, 1
  %7 = trunc i64 %6 to i32
  %8 = icmp ne i32 %7, 0
  br i1 %8, label %15, label %9

9:                                                ; preds = %1
  %10 = load ptr, ptr %2, align 8, !tbaa !31
  %11 = load i64, ptr %10, align 4
  %12 = and i64 %11, 536870911
  %13 = trunc i64 %12 to i32
  %14 = icmp ne i32 %13, 536870911
  br label %15

15:                                               ; preds = %9, %1
  %16 = phi i1 [ false, %1 ], [ %14, %9 ]
  %17 = zext i1 %16 to i32
  ret i32 %17
}

; Function Attrs: inlinehint nounwind uwtable
define internal ptr @Gia_ManObj(ptr noundef %0, i32 noundef %1) #2 {
  %3 = alloca ptr, align 8
  %4 = alloca i32, align 4
  store ptr %0, ptr %3, align 8, !tbaa !3
  store i32 %1, ptr %4, align 4, !tbaa !10
  %5 = load ptr, ptr %3, align 8, !tbaa !3
  %6 = getelementptr inbounds nuw %struct.Gia_Man_t_, ptr %5, i32 0, i32 6
  %7 = load ptr, ptr %6, align 8, !tbaa !37
  %8 = load i32, ptr %4, align 4, !tbaa !10
  %9 = sext i32 %8 to i64
  %10 = getelementptr inbounds %struct.Gia_Obj_t_, ptr %7, i64 %9
  ret ptr %10
}

; Function Attrs: nounwind uwtable
define void @Gia_Iso2ManPrepare(ptr noundef %0) #0 {
  %2 = alloca ptr, align 8
  %3 = alloca ptr, align 8
  %4 = alloca i32, align 4
  store ptr %0, ptr %2, align 8, !tbaa !3
  call void @llvm.lifetime.start.p0(i64 8, ptr %3) #12
  call void @llvm.lifetime.start.p0(i64 4, ptr %4) #12
  store i32 0, ptr %4, align 4, !tbaa !10
  br label %5

5:                                                ; preds = %38, %1
  %6 = load i32, ptr %4, align 4, !tbaa !10
  %7 = load ptr, ptr %2, align 8, !tbaa !3
  %8 = getelementptr inbounds nuw %struct.Gia_Man_t_, ptr %7, i32 0, i32 4
  %9 = load i32, ptr %8, align 8, !tbaa !12
  %10 = icmp slt i32 %6, %9
  br i1 %10, label %11, label %16

11:                                               ; preds = %5
  %12 = load ptr, ptr %2, align 8, !tbaa !3
  %13 = load i32, ptr %4, align 4, !tbaa !10
  %14 = call ptr @Gia_ManObj(ptr noundef %12, i32 noundef %13)
  store ptr %14, ptr %3, align 8, !tbaa !31
  %15 = icmp ne ptr %14, null
  br label %16

16:                                               ; preds = %11, %5
  %17 = phi i1 [ false, %5 ], [ %15, %11 ]
  br i1 %17, label %18, label %41

18:                                               ; preds = %16
  %19 = load ptr, ptr %3, align 8, !tbaa !31
  %20 = call i32 @Gia_ObjIsAnd(ptr noundef %19)
  %21 = icmp ne i32 %20, 0
  br i1 %21, label %22, label %33

22:                                               ; preds = %18
  %23 = load ptr, ptr %3, align 8, !tbaa !31
  %24 = call ptr @Gia_ObjFanin0(ptr noundef %23)
  %25 = getelementptr inbounds nuw %struct.Gia_Obj_t_, ptr %24, i32 0, i32 1
  %26 = load i32, ptr %25, align 4, !tbaa !38
  %27 = load ptr, ptr %3, align 8, !tbaa !31
  %28 = call ptr @Gia_ObjFanin1(ptr noundef %27)
  %29 = getelementptr inbounds nuw %struct.Gia_Obj_t_, ptr %28, i32 0, i32 1
  %30 = load i32, ptr %29, align 4, !tbaa !38
  %31 = call i32 @Abc_MaxInt(i32 noundef %26, i32 noundef %30)
  %32 = add nsw i32 1, %31
  br label %34

33:                                               ; preds = %18
  br label %34

34:                                               ; preds = %33, %22
  %35 = phi i32 [ %32, %22 ], [ 0, %33 ]
  %36 = load ptr, ptr %3, align 8, !tbaa !31
  %37 = getelementptr inbounds nuw %struct.Gia_Obj_t_, ptr %36, i32 0, i32 1
  store i32 %35, ptr %37, align 4, !tbaa !38
  br label %38

38:                                               ; preds = %34
  %39 = load i32, ptr %4, align 4, !tbaa !10
  %40 = add nsw i32 %39, 1
  store i32 %40, ptr %4, align 4, !tbaa !10
  br label %5, !llvm.loop !40

41:                                               ; preds = %16
  %42 = load i32, ptr getelementptr inbounds ([256 x i32], ptr @s_256Primes, i64 0, i64 255), align 4, !tbaa !10
  %43 = load ptr, ptr %2, align 8, !tbaa !3
  %44 = call ptr @Gia_ManConst0(ptr noundef %43)
  %45 = getelementptr inbounds nuw %struct.Gia_Obj_t_, ptr %44, i32 0, i32 1
  store i32 %42, ptr %45, align 4, !tbaa !38
  store i32 1, ptr %4, align 4, !tbaa !10
  br label %46

46:                                               ; preds = %104, %41
  %47 = load i32, ptr %4, align 4, !tbaa !10
  %48 = load ptr, ptr %2, align 8, !tbaa !3
  %49 = getelementptr inbounds nuw %struct.Gia_Man_t_, ptr %48, i32 0, i32 4
  %50 = load i32, ptr %49, align 8, !tbaa !12
  %51 = icmp slt i32 %47, %50
  br i1 %51, label %52, label %57

52:                                               ; preds = %46
  %53 = load ptr, ptr %2, align 8, !tbaa !3
  %54 = load i32, ptr %4, align 4, !tbaa !10
  %55 = call ptr @Gia_ManObj(ptr noundef %53, i32 noundef %54)
  store ptr %55, ptr %3, align 8, !tbaa !31
  %56 = icmp ne ptr %55, null
  br label %57

57:                                               ; preds = %52, %46
  %58 = phi i1 [ false, %46 ], [ %56, %52 ]
  br i1 %58, label %59, label %107

59:                                               ; preds = %57
  %60 = load ptr, ptr %3, align 8, !tbaa !31
  %61 = call i32 @Gia_ObjIsAnd(ptr noundef %60)
  %62 = icmp ne i32 %61, 0
  br i1 %62, label %63, label %83

63:                                               ; preds = %59
  %64 = load ptr, ptr %3, align 8, !tbaa !31
  %65 = getelementptr inbounds nuw %struct.Gia_Obj_t_, ptr %64, i32 0, i32 1
  %66 = load i32, ptr %65, align 4, !tbaa !38
  %67 = and i32 %66, 255
  %68 = zext i32 %67 to i64
  %69 = getelementptr inbounds nuw [256 x i32], ptr @s_256Primes, i64 0, i64 %68
  %70 = load i32, ptr %69, align 4, !tbaa !10
  %71 = load ptr, ptr %3, align 8, !tbaa !31
  %72 = call i32 @Gia_ObjFaninC0(ptr noundef %71)
  %73 = add nsw i32 245, %72
  %74 = load ptr, ptr %3, align 8, !tbaa !31
  %75 = call i32 @Gia_ObjFaninC1(ptr noundef %74)
  %76 = add nsw i32 %73, %75
  %77 = sext i32 %76 to i64
  %78 = getelementptr inbounds [256 x i32], ptr @s_256Primes, i64 0, i64 %77
  %79 = load i32, ptr %78, align 4, !tbaa !10
  %80 = add i32 %70, %79
  %81 = load ptr, ptr %3, align 8, !tbaa !31
  %82 = getelementptr inbounds nuw %struct.Gia_Obj_t_, ptr %81, i32 0, i32 1
  store i32 %80, ptr %82, align 4, !tbaa !38
  br label %103

83:                                               ; preds = %59
  %84 = load ptr, ptr %2, align 8, !tbaa !3
  %85 = load ptr, ptr %3, align 8, !tbaa !31
  %86 = call i32 @Gia_ObjIsPi(ptr noundef %84, ptr noundef %85)
  %87 = icmp ne i32 %86, 0
  br i1 %87, label %88, label %92

88:                                               ; preds = %83
  %89 = load i32, ptr getelementptr inbounds ([256 x i32], ptr @s_256Primes, i64 0, i64 254), align 8, !tbaa !10
  %90 = load ptr, ptr %3, align 8, !tbaa !31
  %91 = getelementptr inbounds nuw %struct.Gia_Obj_t_, ptr %90, i32 0, i32 1
  store i32 %89, ptr %91, align 4, !tbaa !38
  br label %102

92:                                               ; preds = %83
  %93 = load ptr, ptr %2, align 8, !tbaa !3
  %94 = load ptr, ptr %3, align 8, !tbaa !31
  %95 = call i32 @Gia_ObjIsRo(ptr noundef %93, ptr noundef %94)
  %96 = icmp ne i32 %95, 0
  br i1 %96, label %97, label %101

97:                                               ; preds = %92
  %98 = load i32, ptr getelementptr inbounds ([256 x i32], ptr @s_256Primes, i64 0, i64 253), align 4, !tbaa !10
  %99 = load ptr, ptr %3, align 8, !tbaa !31
  %100 = getelementptr inbounds nuw %struct.Gia_Obj_t_, ptr %99, i32 0, i32 1
  store i32 %98, ptr %100, align 4, !tbaa !38
  br label %101

101:                                              ; preds = %97, %92
  br label %102

102:                                              ; preds = %101, %88
  br label %103

103:                                              ; preds = %102, %63
  br label %104

104:                                              ; preds = %103
  %105 = load i32, ptr %4, align 4, !tbaa !10
  %106 = add nsw i32 %105, 1
  store i32 %106, ptr %4, align 4, !tbaa !10
  br label %46, !llvm.loop !41

107:                                              ; preds = %57
  call void @llvm.lifetime.end.p0(i64 4, ptr %4) #12
  call void @llvm.lifetime.end.p0(i64 8, ptr %3) #12
  ret void
}