; Function Attrs: nofree norecurse nosync nounwind memory(readwrite, inaccessiblemem: none) uwtable
define void @Gia_Iso2ManPrepare(ptr noundef readonly captures(none) %0) local_unnamed_addr #2 {
  %2 = getelementptr inbounds nuw i8, ptr %0, i64 24
  %3 = load i32, ptr %2, align 8, !tbaa !29
  %4 = icmp sgt i32 %3, 0
  %5 = getelementptr i8, ptr %0, i64 32
  %.val34 = load ptr, ptr %5, align 8, !tbaa !33
  br i1 %4, label %.lr.ph, label %.critedge.thread

.critedge.thread:                                 ; preds = %1
  %6 = getelementptr inbounds nuw i8, ptr %.val34, i64 8
  store i32 457660525, ptr %6, align 4, !tbaa !37
  br label %.critedge2

.lr.ph:                                           ; preds = %1
  %.not = icmp eq ptr %.val34, null
  br i1 %.not, label %.critedge, label %.lr.ph.split.preheader

.lr.ph.split.preheader:                           ; preds = %.lr.ph
  %wide.trip.count = zext nneg i32 %3 to i64
  br label %.lr.ph.split

.lr.ph.split:                                     ; preds = %.lr.ph.split.preheader, %22
  %indvars.iv = phi i64 [ 0, %.lr.ph.split.preheader ], [ %indvars.iv.next, %22 ]
  %7 = getelementptr inbounds nuw %struct.Gia_Obj_t_, ptr %.val34, i64 %indvars.iv
  %.val35 = load i64, ptr %7, align 4
  %8 = and i64 %.val35, 2147483648
  %.not.i = icmp ne i64 %8, 0
  %9 = and i64 %.val35, 536870911
  %10 = icmp eq i64 %9, 536870911
  %narrow.i.not = or i1 %.not.i, %10
  br i1 %narrow.i.not, label %22, label %11

11:                                               ; preds = %.lr.ph.split
  %12 = sub nsw i64 0, %9
  %13 = getelementptr inbounds %struct.Gia_Obj_t_, ptr %7, i64 %12, i32 1
  %14 = load i32, ptr %13, align 4, !tbaa !37
  %15 = lshr i64 %.val35, 32
  %16 = and i64 %15, 536870911
  %17 = sub nsw i64 0, %16
  %18 = getelementptr inbounds %struct.Gia_Obj_t_, ptr %7, i64 %17, i32 1
  %19 = load i32, ptr %18, align 4, !tbaa !37
  %20 = tail call noundef i32 @llvm.smax.i32(i32 %14, i32 %19)
  %21 = add nsw i32 %20, 1
  br label %22

22:                                               ; preds = %.lr.ph.split, %11
  %23 = phi i32 [ %21, %11 ], [ 0, %.lr.ph.split ]
  %24 = getelementptr inbounds nuw i8, ptr %7, i64 8
  store i32 %23, ptr %24, align 4, !tbaa !37
  %indvars.iv.next = add nuw nsw i64 %indvars.iv, 1
  %exitcond.not = icmp eq i64 %indvars.iv.next, %wide.trip.count
  br i1 %exitcond.not, label %.critedge, label %.lr.ph.split, !llvm.loop !39

.critedge:                                        ; preds = %22, %.lr.ph
  %25 = getelementptr inbounds nuw i8, ptr %.val34, i64 8
  store i32 457660525, ptr %25, align 4, !tbaa !37
  %.not67 = icmp eq i32 %3, 1
  br i1 %.not67, label %.critedge2, label %.lr.ph58

.lr.ph58:                                         ; preds = %.critedge
  %26 = getelementptr i8, ptr %0, i64 16
  %27 = getelementptr i8, ptr %0, i64 64
  %wide.trip.count63 = zext nneg i32 %3 to i64
  br label %28

28:                                               ; preds = %.lr.ph58, %Gia_ObjIsRo.exit.thread
  %indvars.iv60 = phi i64 [ 1, %.lr.ph58 ], [ %indvars.iv.next61, %Gia_ObjIsRo.exit.thread ]
  %29 = getelementptr inbounds nuw %struct.Gia_Obj_t_, ptr %.val34, i64 %indvars.iv60
  %.val36 = load i64, ptr %29, align 4
  %30 = and i64 %.val36, 2147483648
  %.not.i42 = icmp ne i64 %30, 0
  %31 = and i64 %.val36, 536870911
  %32 = icmp eq i64 %31, 536870911
  %narrow.i43.not = or i1 %.not.i42, %32
  br i1 %narrow.i43.not, label %49, label %33

33:                                               ; preds = %28
  %34 = getelementptr inbounds nuw i8, ptr %29, i64 8
  %35 = load i32, ptr %34, align 4, !tbaa !37
  %36 = and i32 %35, 255
  %37 = zext nneg i32 %36 to i64
  %38 = getelementptr inbounds nuw [256 x i32], ptr @s_256Primes, i64 0, i64 %37
  %39 = load i32, ptr %38, align 4, !tbaa !34
  %40 = lshr i64 %.val36, 29
  %41 = and i64 %40, 1
  %42 = add nuw nsw i64 %41, 245
  %43 = lshr i64 %.val36, 61
  %44 = and i64 %43, 1
  %45 = add nuw nsw i64 %42, %44
  %46 = getelementptr inbounds nuw [256 x i32], ptr @s_256Primes, i64 0, i64 %45
  %47 = load i32, ptr %46, align 4, !tbaa !34
  %48 = add i32 %47, %39
  store i32 %48, ptr %34, align 4, !tbaa !37
  br label %Gia_ObjIsRo.exit.thread

49:                                               ; preds = %28
  %50 = and i64 %.val36, 2684354559
  %narrow.i.not.i = icmp eq i64 %50, 2684354559
  br i1 %narrow.i.not.i, label %Gia_ObjIsPi.exit, label %Gia_ObjIsRo.exit.thread

Gia_ObjIsPi.exit:                                 ; preds = %49
  %51 = lshr i64 %.val36, 32
  %52 = trunc nuw i64 %51 to i32
  %53 = and i32 %52, 536870911
  %.val4.i = load i32, ptr %26, align 8, !tbaa !40
  %.val5.i = load ptr, ptr %27, align 8, !tbaa !3
  %54 = getelementptr i8, ptr %.val5.i, i64 4
  %.val5.val.i = load i32, ptr %54, align 4, !tbaa !28
  %55 = sub nsw i32 %.val5.val.i, %.val4.i
  %.not52 = icmp slt i32 %53, %55
  %56 = getelementptr inbounds nuw i8, ptr %29, i64 8
  br i1 %.not52, label %57, label %Gia_ObjIsRo.exit

57:                                               ; preds = %Gia_ObjIsPi.exit
  store i32 -68542372, ptr %56, align 4, !tbaa !37
  br label %Gia_ObjIsRo.exit.thread

Gia_ObjIsRo.exit:                                 ; preds = %Gia_ObjIsPi.exit
  store i32 580014029, ptr %56, align 4, !tbaa !37
  br label %Gia_ObjIsRo.exit.thread

Gia_ObjIsRo.exit.thread:                          ; preds = %49, %33, %Gia_ObjIsRo.exit, %57
  %indvars.iv.next61 = add nuw nsw i64 %indvars.iv60, 1
  %exitcond64.not = icmp eq i64 %indvars.iv.next61, %wide.trip.count63
  br i1 %exitcond64.not, label %.critedge2, label %28, !llvm.loop !41

.critedge2:                                       ; preds = %Gia_ObjIsRo.exit.thread, %.critedge.thread, %.critedge
  ret void
}